target datalayout = "e-m:e-p270:32:32-p271:32:32-p272:64:64-i64:64-i128:128-f80:128-n8:16:32:64-S128"
target triple = "x86_64-pc-linux-gnu"

%struct.ls_tree_options = type { i8, i32, i32, %struct.pathspec, ptr, ptr }
%struct.pathspec = type { i32, i8, i32, i32, ptr }

@the_repository = external global ptr, align 8
@stdout = external global ptr, align 8

; Function Attrs: inlinehint nounwind uwtable
define internal i32 @object_type(i32 noundef %0) #4 {
  %2 = alloca i32, align 4
  store i32 %0, ptr %2, align 4, !tbaa !4
  %3 = load i32, ptr %2, align 4, !tbaa !4
  %4 = and i32 %3, 61440
  %5 = icmp eq i32 %4, 16384
  br i1 %5, label %6, label %7

6:                                                ; preds = %1
  br label %12

7:                                                ; preds = %1
  %8 = load i32, ptr %2, align 4, !tbaa !4
  %9 = and i32 %8, 61440
  %10 = icmp eq i32 %9, 57344
  %11 = select i1 %10, i32 1, i32 3
  br label %12

12:                                               ; preds = %7, %6
  %13 = phi i32 [ 2, %6 ], [ %11, %7 ]
  ret i32 %13
}

; Function Attrs: nounwind uwtable
define internal i32 @show_tree_object(ptr noundef %0, ptr noundef %1, ptr noundef %2, i32 noundef %3, ptr noundef %4) #0 {
  %6 = alloca i32, align 4
  %7 = alloca ptr, align 8
  %8 = alloca ptr, align 8
  %9 = alloca ptr, align 8
  %10 = alloca i32, align 4
  %11 = alloca ptr, align 8
  %12 = alloca ptr, align 8
  %13 = alloca i32, align 4
  %14 = alloca i32, align 4
  %15 = alloca i32, align 4
  %16 = alloca ptr, align 8
  %17 = alloca i32, align 4
  store ptr %0, ptr %7, align 8, !tbaa !55
  store ptr %1, ptr %8, align 8, !tbaa !57
  store ptr %2, ptr %9, align 8, !tbaa !11
  store i32 %3, ptr %10, align 4, !tbaa !4
  store ptr %4, ptr %11, align 8, !tbaa !16
  call void @llvm.lifetime.start.p0(i64 8, ptr %12) #9
  %18 = load ptr, ptr %11, align 8, !tbaa !16
  store ptr %18, ptr %12, align 8, !tbaa !59
  call void @llvm.lifetime.start.p0(i64 4, ptr %13) #9
  call void @llvm.lifetime.start.p0(i64 4, ptr %14) #9
  call void @llvm.lifetime.start.p0(i64 4, ptr %15) #9
  %19 = load i32, ptr %10, align 4, !tbaa !4
  %20 = call i32 @object_type(i32 noundef %19)
  store i32 %20, ptr %15, align 4, !tbaa !4
  call void @llvm.lifetime.start.p0(i64 8, ptr %16) #9
  %21 = load ptr, ptr %12, align 8, !tbaa !59
  %22 = load ptr, ptr %8, align 8, !tbaa !57
  %23 = load ptr, ptr %9, align 8, !tbaa !11
  %24 = load i32, ptr %15, align 4, !tbaa !4
  %25 = call i32 @show_tree_common(ptr noundef %21, ptr noundef %14, ptr noundef %22, ptr noundef %23, i32 noundef %24)
  store i32 %25, ptr %13, align 4, !tbaa !4
  %26 = load i32, ptr %13, align 4, !tbaa !4
  %27 = icmp sge i32 %26, 0
  br i1 %27, label %28, label %30

28:                                               ; preds = %5
  %29 = load i32, ptr %13, align 4, !tbaa !4
  store i32 %29, ptr %6, align 4
  store i32 1, ptr %17, align 4
  br label %53

30:                                               ; preds = %5
  %31 = load ptr, ptr @the_repository, align 8, !tbaa !13
  %32 = load ptr, ptr %7, align 8, !tbaa !55
  %33 = load ptr, ptr %12, align 8, !tbaa !59
  %34 = getelementptr inbounds nuw %struct.ls_tree_options, ptr %33, i32 0, i32 1
  %35 = load i32, ptr %34, align 4, !tbaa !65
  %36 = call ptr @repo_find_unique_abbrev(ptr noundef %31, ptr noundef %32, i32 noundef %35)
  store ptr %36, ptr %16, align 8, !tbaa !11
  %37 = load ptr, ptr %12, align 8, !tbaa !59
  %38 = load i8, ptr %37, align 8
  %39 = and i8 %38, 1
  %40 = zext i8 %39 to i32
  %41 = icmp ne i32 %40, 0
  br i1 %41, label %42, label %48

42:                                               ; preds = %30
  %43 = load ptr, ptr %16, align 8, !tbaa !11
  %44 = load ptr, ptr @stdout, align 8, !tbaa !67
  %45 = call i32 @fputs(ptr noundef %43, ptr noundef %44)
  %46 = load ptr, ptr @stdout, align 8, !tbaa !67
  %47 = call i32 @fputc(i32 noundef 0, ptr noundef %46)
  br label %51

48:                                               ; preds = %30
  %49 = load ptr, ptr %16, align 8, !tbaa !11
  %50 = call i32 @puts(ptr noundef %49)
  br label %51

51:                                               ; preds = %48, %42
  %52 = load i32, ptr %14, align 4, !tbaa !4
  store i32 %52, ptr %6, align 4
  store i32 1, ptr %17, align 4
  br label %53

53:                                               ; preds = %51, %28
  call void @llvm.lifetime.end.p0(i64 8, ptr %16) #9
  call void @llvm.lifetime.end.p0(i64 4, ptr %15) #9
  call void @llvm.lifetime.end.p0(i64 4, ptr %14) #9
  call void @llvm.lifetime.end.p0(i64 4, ptr %13) #9
  call void @llvm.lifetime.end.p0(i64 8, ptr %12) #9
  %54 = load i32, ptr %6, align 4
  ret i32 %54
}