; Function Attrs: nounwind uwtable
define internal i32 @show_tree_object(ptr noundef %0, ptr noundef readonly captures(none) %1, ptr noundef readonly captures(none) %2, i32 noundef %3, ptr noundef readonly captures(none) %4) #0 {
  %6 = alloca i32, align 4
  call void @llvm.lifetime.start.p0(i64 4, ptr nonnull %6) #13
  %7 = and i32 %3, 61440
  %8 = icmp eq i32 %7, 16384
  %9 = icmp eq i32 %7, 57344
  %10 = select i1 %9, i32 1, i32 3
  %11 = select i1 %8, i32 2, i32 %10
  %12 = call fastcc i32 @show_tree_common(ptr noundef %4, ptr noundef %6, ptr noundef %1, ptr noundef %2, i32 noundef %11)
  %13 = icmp sgt i32 %12, -1
  br i1 %13, label %30, label %14

14:                                               ; preds = %5
  %15 = load ptr, ptr @the_repository, align 8, !tbaa !22
  %16 = getelementptr inbounds nuw i8, ptr %4, i64 4
  %17 = load i32, ptr %16, align 4, !tbaa !53
  %18 = tail call ptr @repo_find_unique_abbrev(ptr noundef %15, ptr noundef %0, i32 noundef %17) #13
  %19 = load i8, ptr %4, align 8
  %20 = and i8 %19, 1
  %.not = icmp eq i8 %20, 0
  br i1 %.not, label %26, label %21

21:                                               ; preds = %14
  %22 = load ptr, ptr @stdout, align 8, !tbaa !55
  %23 = tail call i32 @fputs(ptr noundef %18, ptr noundef %22)
  %24 = load ptr, ptr @stdout, align 8, !tbaa !55
  %25 = tail call i32 @fputc(i32 noundef 0, ptr noundef %24)
  br label %28

26:                                               ; preds = %14
  %27 = tail call i32 @puts(ptr noundef nonnull dereferenceable(1) %18)
  br label %28

28:                                               ; preds = %26, %21
  %29 = load i32, ptr %6, align 4, !tbaa !4
  br label %30

30:                                               ; preds = %5, %28
  %.0 = phi i32 [ %29, %28 ], [ %12, %5 ]
  call void @llvm.lifetime.end.p0(i64 4, ptr nonnull %6) #13
  ret i32 %.0
}